target datalayout = "e-m:e-p270:32:32-p271:32:32-p272:64:64-i64:64-i128:128-f80:128-n8:16:32:64-S128"
target triple = "x86_64-pc-linux-gnu"

%struct.x509_st = type { %struct.x509_cinf_st, %struct.X509_algor_st, %struct.asn1_string_st, %struct.x509_sig_info_st, %struct.CRYPTO_REF_COUNT, %struct.crypto_ex_data_st, i64, i64, i32, i32, i32, i32, ptr, ptr, ptr, ptr, ptr, ptr, ptr, ptr, [20 x i8], ptr, ptr, i32, ptr, ptr, ptr }
%struct.x509_cinf_st = type { ptr, %struct.asn1_string_st, %struct.X509_algor_st, ptr, %struct.X509_val_st, ptr, ptr, ptr, ptr, ptr, %struct.ASN1_ENCODING_st }
%struct.X509_val_st = type { ptr, ptr }
%struct.ASN1_ENCODING_st = type { ptr, i64, i32 }
%struct.X509_algor_st = type { ptr, ptr }
%struct.asn1_string_st = type { i32, i32, ptr, i64 }
%struct.x509_sig_info_st = type { i32, i32, i32, i32 }
%struct.CRYPTO_REF_COUNT = type { i32 }
%struct.crypto_ex_data_st = type { ptr, ptr }
%struct.X509_req_st = type { %struct.X509_req_info_st, %struct.X509_algor_st, ptr, %struct.CRYPTO_REF_COUNT, ptr, ptr, ptr, ptr }
%struct.X509_req_info_st = type { %struct.ASN1_ENCODING_st, ptr, ptr, ptr, ptr }

@.str = private unnamed_addr constant [34 x i8] c"../openssl/crypto/x509/x509_req.c\00", align 1
@__func__.X509_to_X509_REQ = private unnamed_addr constant [17 x i8] c"X509_to_X509_REQ\00", align 1

; Function Attrs: nounwind uwtable
define ptr @X509_to_X509_REQ(ptr noundef %0, ptr noundef %1, ptr noundef %2) #0 {
  %4 = alloca ptr, align 8
  %5 = alloca ptr, align 8
  %6 = alloca ptr, align 8
  %7 = alloca ptr, align 8
  %8 = alloca ptr, align 8
  %9 = alloca ptr, align 8
  %10 = alloca i32, align 4
  %11 = alloca ptr, align 8
  %12 = alloca i32, align 4
  store ptr %0, ptr %5, align 8, !tbaa !3
  store ptr %1, ptr %6, align 8, !tbaa !8
  store ptr %2, ptr %7, align 8, !tbaa !10
  call void @llvm.lifetime.start.p0(i64 8, ptr %8) #4
  call void @llvm.lifetime.start.p0(i64 8, ptr %9) #4
  call void @llvm.lifetime.start.p0(i64 4, ptr %10) #4
  call void @llvm.lifetime.start.p0(i64 8, ptr %11) #4
  %13 = load ptr, ptr %5, align 8, !tbaa !3
  %14 = getelementptr inbounds nuw %struct.x509_st, ptr %13, i32 0, i32 25
  %15 = load ptr, ptr %14, align 8, !tbaa !12
  %16 = load ptr, ptr %5, align 8, !tbaa !3
  %17 = getelementptr inbounds nuw %struct.x509_st, ptr %16, i32 0, i32 26
  %18 = load ptr, ptr %17, align 8, !tbaa !41
  %19 = call ptr @X509_REQ_new_ex(ptr noundef %15, ptr noundef %18)
  store ptr %19, ptr %8, align 8, !tbaa !42
  %20 = load ptr, ptr %8, align 8, !tbaa !42
  %21 = icmp eq ptr %20, null
  br i1 %21, label %22, label %23

22:                                               ; preds = %3
  call void @ERR_new()
  call void @ERR_set_debug(ptr noundef @.str, i32 noundef 31, ptr noundef @__func__.X509_to_X509_REQ)
  call void (i32, i32, ptr, ...) @ERR_set_error(i32 noundef 11, i32 noundef 524301, ptr noundef null)
  br label %81

23:                                               ; preds = %3
  %24 = load ptr, ptr %8, align 8, !tbaa !42
  %25 = getelementptr inbounds nuw %struct.X509_req_st, ptr %24, i32 0, i32 0
  store ptr %25, ptr %9, align 8, !tbaa !44
  %26 = load ptr, ptr %9, align 8, !tbaa !44
  %27 = getelementptr inbounds nuw %struct.X509_req_info_st, ptr %26, i32 0, i32 1
  %28 = load ptr, ptr %27, align 8, !tbaa !46
  %29 = getelementptr inbounds nuw %struct.asn1_string_st, ptr %28, i32 0, i32 0
  store i32 1, ptr %29, align 8, !tbaa !49
  %30 = call noalias ptr @CRYPTO_malloc(i64 noundef 1, ptr noundef @.str, i32 noundef 38)
  %31 = load ptr, ptr %9, align 8, !tbaa !44
  %32 = getelementptr inbounds nuw %struct.X509_req_info_st, ptr %31, i32 0, i32 1
  %33 = load ptr, ptr %32, align 8, !tbaa !46
  %34 = getelementptr inbounds nuw %struct.asn1_string_st, ptr %33, i32 0, i32 2
  store ptr %30, ptr %34, align 8, !tbaa !50
  %35 = load ptr, ptr %9, align 8, !tbaa !44
  %36 = getelementptr inbounds nuw %struct.X509_req_info_st, ptr %35, i32 0, i32 1
  %37 = load ptr, ptr %36, align 8, !tbaa !46
  %38 = getelementptr inbounds nuw %struct.asn1_string_st, ptr %37, i32 0, i32 2
  %39 = load ptr, ptr %38, align 8, !tbaa !50
  %40 = icmp eq ptr %39, null
  br i1 %40, label %41, label %42

41:                                               ; preds = %23
  br label %81

42:                                               ; preds = %23
  %43 = load ptr, ptr %9, align 8, !tbaa !44
  %44 = getelementptr inbounds nuw %struct.X509_req_info_st, ptr %43, i32 0, i32 1
  %45 = load ptr, ptr %44, align 8, !tbaa !46
  %46 = getelementptr inbounds nuw %struct.asn1_string_st, ptr %45, i32 0, i32 2
  %47 = load ptr, ptr %46, align 8, !tbaa !50
  %48 = getelementptr inbounds i8, ptr %47, i64 0
  store i8 0, ptr %48, align 1, !tbaa !51
  %49 = load ptr, ptr %8, align 8, !tbaa !42
  %50 = load ptr, ptr %5, align 8, !tbaa !3
  %51 = call ptr @X509_get_subject_name(ptr noundef %50)
  %52 = call i32 @X509_REQ_set_subject_name(ptr noundef %49, ptr noundef %51)
  %53 = icmp ne i32 %52, 0
  br i1 %53, label %55, label %54

54:                                               ; preds = %42
  br label %81

55:                                               ; preds = %42
  %56 = load ptr, ptr %5, align 8, !tbaa !3
  %57 = call ptr @X509_get0_pubkey(ptr noundef %56)
  store ptr %57, ptr %11, align 8, !tbaa !8
  %58 = load ptr, ptr %11, align 8, !tbaa !8
  %59 = icmp eq ptr %58, null
  br i1 %59, label %60, label %61

60:                                               ; preds = %55
  br label %81

61:                                               ; preds = %55
  %62 = load ptr, ptr %8, align 8, !tbaa !42
  %63 = load ptr, ptr %11, align 8, !tbaa !8
  %64 = call i32 @X509_REQ_set_pubkey(ptr noundef %62, ptr noundef %63)
  store i32 %64, ptr %10, align 4, !tbaa !52
  %65 = load i32, ptr %10, align 4, !tbaa !52
  %66 = icmp ne i32 %65, 0
  br i1 %66, label %68, label %67

67:                                               ; preds = %61
  br label %81

68:                                               ; preds = %61
  %69 = load ptr, ptr %6, align 8, !tbaa !8
  %70 = icmp ne ptr %69, null
  br i1 %70, label %71, label %79

71:                                               ; preds = %68
  %72 = load ptr, ptr %8, align 8, !tbaa !42
  %73 = load ptr, ptr %6, align 8, !tbaa !8
  %74 = load ptr, ptr %7, align 8, !tbaa !10
  %75 = call i32 @X509_REQ_sign(ptr noundef %72, ptr noundef %73, ptr noundef %74)
  %76 = icmp ne i32 %75, 0
  br i1 %76, label %78, label %77

77:                                               ; preds = %71
  br label %81

78:                                               ; preds = %71
  br label %79

79:                                               ; preds = %78, %68
  %80 = load ptr, ptr %8, align 8, !tbaa !42
  store ptr %80, ptr %4, align 8
  store i32 1, ptr %12, align 4
  br label %83

81:                                               ; preds = %77, %67, %60, %54, %41, %22
  %82 = load ptr, ptr %8, align 8, !tbaa !42
  call void @X509_REQ_free(ptr noundef %82)
  store ptr null, ptr %4, align 8
  store i32 1, ptr %12, align 4
  br label %83

83:                                               ; preds = %81, %79
  call void @llvm.lifetime.end.p0(i64 8, ptr %11) #4
  call void @llvm.lifetime.end.p0(i64 4, ptr %10) #4
  call void @llvm.lifetime.end.p0(i64 8, ptr %9) #4
  call void @llvm.lifetime.end.p0(i64 8, ptr %8) #4
  %84 = load ptr, ptr %4, align 8
  ret ptr %84
}