; Function Attrs: nounwind uwtable
define ptr @X509_to_X509_REQ(ptr noundef %0, ptr noundef %1, ptr noundef %2) local_unnamed_addr #0 {
  %4 = getelementptr inbounds nuw i8, ptr %0, i64 368
  %5 = load ptr, ptr %4, align 8, !tbaa !3
  %6 = getelementptr inbounds nuw i8, ptr %0, i64 376
  %7 = load ptr, ptr %6, align 8, !tbaa !35
  %8 = tail call ptr @X509_REQ_new_ex(ptr noundef %5, ptr noundef %7) #8
  %9 = icmp eq ptr %8, null
  br i1 %9, label %10, label %11

10:                                               ; preds = %3
  tail call void @ERR_new() #8
  tail call void @ERR_set_debug(ptr noundef nonnull @.str, i32 noundef 31, ptr noundef nonnull @__func__.X509_to_X509_REQ) #8
  tail call void (i32, i32, ptr, ...) @ERR_set_error(i32 noundef 11, i32 noundef 524301, ptr noundef null) #8
  br label %29

11:                                               ; preds = %3
  %12 = getelementptr inbounds nuw i8, ptr %8, i64 24
  %13 = load ptr, ptr %12, align 8, !tbaa !36
  store i32 1, ptr %13, align 8, !tbaa !39
  %14 = tail call noalias ptr @CRYPTO_malloc(i64 noundef 1, ptr noundef nonnull @.str, i32 noundef 38) #8
  %15 = load ptr, ptr %12, align 8, !tbaa !36
  %16 = getelementptr inbounds nuw i8, ptr %15, i64 8
  store ptr %14, ptr %16, align 8, !tbaa !40
  %17 = icmp eq ptr %14, null
  br i1 %17, label %29, label %18

18:                                               ; preds = %11
  store i8 0, ptr %14, align 1, !tbaa !41
  %19 = tail call ptr @X509_get_subject_name(ptr noundef nonnull %0) #8
  %20 = tail call i32 @X509_REQ_set_subject_name(ptr noundef nonnull %8, ptr noundef %19) #8
  %.not = icmp eq i32 %20, 0
  br i1 %.not, label %29, label %21

21:                                               ; preds = %18
  %22 = tail call ptr @X509_get0_pubkey(ptr noundef nonnull %0) #8
  %23 = icmp eq ptr %22, null
  br i1 %23, label %29, label %24

24:                                               ; preds = %21
  %25 = tail call i32 @X509_REQ_set_pubkey(ptr noundef nonnull %8, ptr noundef nonnull %22) #8
  %.not25 = icmp eq i32 %25, 0
  br i1 %.not25, label %29, label %26

26:                                               ; preds = %24
  %.not26 = icmp eq ptr %1, null
  br i1 %.not26, label %30, label %27

27:                                               ; preds = %26
  %28 = tail call i32 @X509_REQ_sign(ptr noundef nonnull %8, ptr noundef nonnull %1, ptr noundef %2) #8
  %.not27 = icmp eq i32 %28, 0
  br i1 %.not27, label %29, label %30

29:                                               ; preds = %27, %24, %21, %18, %11, %10
  tail call void @X509_REQ_free(ptr noundef %8) #8
  br label %30

30:                                               ; preds = %26, %27, %29
  %.0 = phi ptr [ null, %29 ], [ %8, %27 ], [ %8, %26 ]
  ret ptr %.0
}